target datalayout = "e-m:e-p270:32:32-p271:32:32-p272:64:64-i64:64-i128:128-f80:128-n8:16:32:64-S128"
target triple = "x86_64-pc-linux-gnu"

%struct.client_parallel_data = type { i32, i32, i32, i32, i32, i32, i32, ptr }
%struct.SCANID = type { i32, ptr, ptr }
%struct.RCVLN = type { [5120 x i8], i32, i32, ptr, ptr }

@.str.11 = private unnamed_addr constant [29 x i8] c"Bogus session id from clamd\0A\00", align 1
@.str.12 = private unnamed_addr constant [23 x i8] c"Failed to parse reply\0A\00", align 1
@.str.13 = private unnamed_addr constant [7 x i8] c" FOUND\00", align 1
@.str.14 = private unnamed_addr constant [6 x i8] c"%s%s\0A\00", align 1
@action = external global ptr, align 8
@.str.15 = private unnamed_addr constant [7 x i8] c" ERROR\00", align 1

; Function Attrs: nounwind uwtable
define internal i32 @dspresult(ptr noundef %0) #0 {
  %2 = alloca i32, align 4
  %3 = alloca ptr, align 8
  %4 = alloca ptr, align 8
  %5 = alloca ptr, align 8
  %6 = alloca ptr, align 8
  %7 = alloca i32, align 4
  %8 = alloca i32, align 4
  %9 = alloca ptr, align 8
  %10 = alloca %struct.RCVLN, align 8
  %11 = alloca ptr, align 8
  store ptr %0, ptr %3, align 8
  store ptr null, ptr %9, align 8
  %12 = load ptr, ptr %3, align 8
  %13 = getelementptr inbounds %struct.client_parallel_data, ptr %12, i32 0, i32 4
  %14 = load i32, ptr %13, align 8
  call void @recvlninit(ptr noundef %10, i32 noundef %14)
  br label %15

15:                                               ; preds = %122, %1
  %16 = call i32 @recvln(ptr noundef %10, ptr noundef %5, ptr noundef %6)
  store i32 %16, ptr %8, align 4
  %17 = load i32, ptr %8, align 4
  %18 = icmp slt i32 %17, 0
  br i1 %18, label %19, label %20

19:                                               ; preds = %15
  store i32 1, ptr %2, align 4
  br label %129

20:                                               ; preds = %15
  %21 = load i32, ptr %8, align 4
  %22 = icmp ne i32 %21, 0
  br i1 %22, label %24, label %23

23:                                               ; preds = %20
  store i32 2, ptr %2, align 4
  br label %129

24:                                               ; preds = %20
  %25 = load ptr, ptr %5, align 8
  %26 = call i32 @atoi(ptr noundef %25) #10
  store i32 %26, ptr %7, align 4
  %27 = icmp ne i32 %26, 0
  br i1 %27, label %28, label %53

28:                                               ; preds = %24
  %29 = load ptr, ptr %3, align 8
  %30 = getelementptr inbounds %struct.client_parallel_data, ptr %29, i32 0, i32 7
  store ptr %30, ptr %9, align 8
  br label %31

31:                                               ; preds = %43, %28
  %32 = load ptr, ptr %9, align 8
  %33 = load ptr, ptr %32, align 8
  %34 = icmp ne ptr %33, null
  br i1 %34, label %35, label %47

35:                                               ; preds = %31
  %36 = load ptr, ptr %9, align 8
  %37 = load ptr, ptr %36, align 8
  %38 = getelementptr inbounds %struct.SCANID, ptr %37, i32 0, i32 0
  %39 = load i32, ptr %38, align 8
  %40 = load i32, ptr %7, align 4
  %41 = icmp eq i32 %39, %40
  br i1 %41, label %42, label %43

42:                                               ; preds = %35
  br label %47

43:                                               ; preds = %35
  %44 = load ptr, ptr %9, align 8
  %45 = load ptr, ptr %44, align 8
  %46 = getelementptr inbounds %struct.SCANID, ptr %45, i32 0, i32 2
  store ptr %46, ptr %9, align 8
  br label %31

47:                                               ; preds = %42, %31
  %48 = load ptr, ptr %9, align 8
  %49 = load ptr, ptr %48, align 8
  %50 = icmp ne ptr %49, null
  br i1 %50, label %52, label %51

51:                                               ; preds = %47
  store ptr null, ptr %9, align 8
  br label %52

52:                                               ; preds = %51, %47
  br label %53

53:                                               ; preds = %52, %24
  %54 = load ptr, ptr %9, align 8
  %55 = icmp ne ptr %54, null
  br i1 %55, label %58, label %56

56:                                               ; preds = %53
  %57 = call i32 (i32, ptr, ...) @logg(i32 noundef 5, ptr noundef @.str.11)
  store i32 1, ptr %2, align 4
  br label %129

58:                                               ; preds = %53
  %59 = load ptr, ptr %9, align 8
  %60 = load ptr, ptr %59, align 8
  %61 = getelementptr inbounds %struct.SCANID, ptr %60, i32 0, i32 1
  %62 = load ptr, ptr %61, align 8
  store ptr %62, ptr %4, align 8
  %63 = load i32, ptr %8, align 4
  %64 = icmp sgt i32 %63, 7
  br i1 %64, label %65, label %112

65:                                               ; preds = %58
  %66 = load ptr, ptr %5, align 8
  %67 = call ptr @strrchr(ptr noundef %66, i32 noundef 58) #10
  store ptr %67, ptr %11, align 8
  %68 = load ptr, ptr %11, align 8
  %69 = icmp ne ptr %68, null
  br i1 %69, label %73, label %70

70:                                               ; preds = %65
  %71 = call i32 (i32, ptr, ...) @logg(i32 noundef 5, ptr noundef @.str.12)
  %72 = load ptr, ptr %4, align 8
  call void @free(ptr noundef %72) #7
  store i32 1, ptr %2, align 4
  br label %129

73:                                               ; preds = %65
  %74 = load ptr, ptr %6, align 8
  %75 = getelementptr inbounds i8, ptr %74, i64 -7
  %76 = call i32 @memcmp(ptr noundef %75, ptr noundef @.str.13, i64 noundef 6) #10
  %77 = icmp ne i32 %76, 0
  br i1 %77, label %94, label %78

78:                                               ; preds = %73
  %79 = load ptr, ptr %3, align 8
  %80 = getelementptr inbounds %struct.client_parallel_data, ptr %79, i32 0, i32 0
  %81 = load i32, ptr %80, align 8
  %82 = add nsw i32 %81, 1
  store i32 %82, ptr %80, align 8
  %83 = load ptr, ptr %3, align 8
  %84 = getelementptr inbounds %struct.client_parallel_data, ptr %83, i32 0, i32 6
  store i32 0, ptr %84, align 8
  %85 = load ptr, ptr %4, align 8
  %86 = load ptr, ptr %11, align 8
  %87 = call i32 (i32, ptr, ...) @logg(i32 noundef 0, ptr noundef @.str.14, ptr noundef %85, ptr noundef %86)
  %88 = load ptr, ptr @action, align 8
  %89 = icmp ne ptr %88, null
  br i1 %89, label %90, label %93

90:                                               ; preds = %78
  %91 = load ptr, ptr @action, align 8
  %92 = load ptr, ptr %4, align 8
  call void %91(ptr noundef %92)
  br label %93

93:                                               ; preds = %90, %78
  br label %110

94:                                               ; preds = %73
  %95 = load ptr, ptr %6, align 8
  %96 = getelementptr inbounds i8, ptr %95, i64 -7
  %97 = call i32 @memcmp(ptr noundef %96, ptr noundef @.str.15, i64 noundef 6) #10
  %98 = icmp ne i32 %97, 0
  br i1 %98, label %109, label %99

99:                                               ; preds = %94
  %100 = load ptr, ptr %3, align 8
  %101 = getelementptr inbounds %struct.client_parallel_data, ptr %100, i32 0, i32 2
  %102 = load i32, ptr %101, align 8
  %103 = add nsw i32 %102, 1
  store i32 %103, ptr %101, align 8
  %104 = load ptr, ptr %3, align 8
  %105 = getelementptr inbounds %struct.client_parallel_data, ptr %104, i32 0, i32 6
  store i32 0, ptr %105, align 8
  %106 = load ptr, ptr %4, align 8
  %107 = load ptr, ptr %11, align 8
  %108 = call i32 (i32, ptr, ...) @logg(i32 noundef 0, ptr noundef @.str.14, ptr noundef %106, ptr noundef %107)
  br label %109

109:                                              ; preds = %99, %94
  br label %110

110:                                              ; preds = %109, %93
  br label %111

111:                                              ; preds = %110
  br label %112

112:                                              ; preds = %111, %58
  %113 = load ptr, ptr %4, align 8
  call void @free(ptr noundef %113) #7
  %114 = load ptr, ptr %9, align 8
  %115 = load ptr, ptr %114, align 8
  store ptr %115, ptr %5, align 8
  %116 = load ptr, ptr %9, align 8
  %117 = load ptr, ptr %116, align 8
  %118 = getelementptr inbounds %struct.SCANID, ptr %117, i32 0, i32 2
  %119 = load ptr, ptr %118, align 8
  %120 = load ptr, ptr %9, align 8
  store ptr %119, ptr %120, align 8
  %121 = load ptr, ptr %5, align 8
  call void @free(ptr noundef %121) #7
  br label %122

122:                                              ; preds = %112
  %123 = getelementptr inbounds %struct.RCVLN, ptr %10, i32 0, i32 3
  %124 = load ptr, ptr %123, align 8
  %125 = getelementptr inbounds %struct.RCVLN, ptr %10, i32 0, i32 0
  %126 = getelementptr inbounds [5120 x i8], ptr %125, i64 0, i64 0
  %127 = icmp ne ptr %124, %126
  br i1 %127, label %15, label %128

128:                                              ; preds = %122
  store i32 0, ptr %2, align 4
  br label %129

129:                                              ; preds = %128, %70, %56, %23, %19
  %130 = load i32, ptr %2, align 4
  ret i32 %130
}