; Function Attrs: nounwind uwtable
define internal fastcc range(i32 0, 3) i32 @dspresult(ptr noundef %0) unnamed_addr #0 {
  %2 = alloca ptr, align 8
  %3 = alloca ptr, align 8
  %4 = alloca %struct.RCVLN, align 8
  %5 = getelementptr inbounds nuw i8, ptr %0, i64 16
  %6 = load i32, ptr %5, align 8
  call void @recvlninit(ptr noundef nonnull %4, i32 noundef %6) #11
  %7 = getelementptr inbounds nuw i8, ptr %0, i64 32
  %8 = getelementptr inbounds nuw i8, ptr %0, i64 8
  %9 = getelementptr inbounds nuw i8, ptr %0, i64 24
  %10 = getelementptr inbounds nuw i8, ptr %4, i64 5128
  br label %11

11:                                               ; preds = %52, %1
  %.027 = phi ptr [ null, %1 ], [ %.148, %52 ]
  %12 = call i32 @recvln(ptr noundef nonnull %4, ptr noundef nonnull %2, ptr noundef nonnull %3) #11
  %13 = icmp slt i32 %12, 0
  br i1 %13, label %.loopexit, label %14

14:                                               ; preds = %11
  %.not = icmp eq i32 %12, 0
  br i1 %.not, label %.loopexit, label %15

15:                                               ; preds = %14
  %16 = load ptr, ptr %2, align 8
  %17 = call i32 @atoi(ptr noundef %16) #14
  %.not33 = icmp eq i32 %17, 0
  br i1 %.not33, label %27, label %18

18:                                               ; preds = %15
  %19 = load ptr, ptr %7, align 8
  %.not3452 = icmp eq ptr %19, null
  br i1 %.not3452, label %.thread, label %.lr.ph.preheader

.lr.ph.preheader:                                 ; preds = %18
  %20 = load i32, ptr %19, align 8
  %21 = icmp eq i32 %20, %17
  br i1 %21, label %.thread45, label %.lr.ph65

.lr.ph65:                                         ; preds = %.lr.ph.preheader, %.lr.ph
  %22 = phi ptr [ %24, %.lr.ph ], [ %19, %.lr.ph.preheader ]
  %23 = getelementptr inbounds nuw i8, ptr %22, i64 16
  %24 = load ptr, ptr %23, align 8
  %.not34 = icmp eq ptr %24, null
  br i1 %.not34, label %.thread, label %.lr.ph

.lr.ph:                                           ; preds = %.lr.ph65
  %25 = load i32, ptr %24, align 8
  %26 = icmp eq i32 %25, %17
  br i1 %26, label %.thread45.loopexit, label %.lr.ph65

27:                                               ; preds = %15
  %.not36 = icmp eq ptr %.027, null
  br i1 %.not36, label %.thread, label %..thread45_crit_edge

..thread45_crit_edge:                             ; preds = %27
  %.pre = load ptr, ptr %.027, align 8
  br label %.thread45

.thread:                                          ; preds = %27, %18, %.lr.ph65
  %28 = call i32 (i32, ptr, ...) @logg(i32 noundef 5, ptr noundef nonnull @.str.11) #11
  br label %.loopexit

.thread45.loopexit:                               ; preds = %.lr.ph
  %29 = getelementptr inbounds nuw i8, ptr %22, i64 16
  br label %.thread45

.thread45:                                        ; preds = %.thread45.loopexit, %.lr.ph.preheader, %..thread45_crit_edge
  %30 = phi ptr [ %.pre, %..thread45_crit_edge ], [ %19, %.lr.ph.preheader ], [ %24, %.thread45.loopexit ]
  %.148 = phi ptr [ %.027, %..thread45_crit_edge ], [ %7, %.lr.ph.preheader ], [ %29, %.thread45.loopexit ]
  %31 = getelementptr inbounds nuw i8, ptr %30, i64 8
  %32 = load ptr, ptr %31, align 8
  %33 = icmp sgt i32 %12, 7
  br i1 %33, label %34, label %52

34:                                               ; preds = %.thread45
  %35 = call ptr @strrchr(ptr noundef nonnull dereferenceable(1) %16, i32 noundef 58) #14
  %.not37 = icmp eq ptr %35, null
  br i1 %.not37, label %36, label %38

36:                                               ; preds = %34
  %37 = call i32 (i32, ptr, ...) @logg(i32 noundef 5, ptr noundef nonnull @.str.12) #11
  call void @free(ptr noundef %32) #11
  br label %.loopexit

38:                                               ; preds = %34
  %39 = load ptr, ptr %3, align 8
  %40 = getelementptr inbounds i8, ptr %39, i64 -7
  %bcmp = call i32 @bcmp(ptr noundef nonnull dereferenceable(6) %40, ptr noundef nonnull dereferenceable(6) @.str.13, i64 6)
  %.not38 = icmp eq i32 %bcmp, 0
  br i1 %.not38, label %41, label %47

41:                                               ; preds = %38
  %42 = load i32, ptr %0, align 8
  %43 = add nsw i32 %42, 1
  store i32 %43, ptr %0, align 8
  store i32 0, ptr %9, align 8
  %44 = call i32 (i32, ptr, ...) @logg(i32 noundef 0, ptr noundef nonnull @.str.14, ptr noundef %32, ptr noundef nonnull %35) #11
  %45 = load ptr, ptr @action, align 8
  %.not39 = icmp eq ptr %45, null
  br i1 %.not39, label %52, label %46

46:                                               ; preds = %41
  call void %45(ptr noundef %32) #11
  br label %52

47:                                               ; preds = %38
  %bcmp40 = call i32 @bcmp(ptr noundef nonnull dereferenceable(6) %40, ptr noundef nonnull dereferenceable(6) @.str.15, i64 6)
  %.not41 = icmp eq i32 %bcmp40, 0
  br i1 %.not41, label %48, label %52

48:                                               ; preds = %47
  %49 = load i32, ptr %8, align 8
  %50 = add nsw i32 %49, 1
  store i32 %50, ptr %8, align 8
  store i32 0, ptr %9, align 8
  %51 = call i32 (i32, ptr, ...) @logg(i32 noundef 0, ptr noundef nonnull @.str.14, ptr noundef %32, ptr noundef nonnull %35) #11
  br label %52

52:                                               ; preds = %47, %48, %41, %46, %.thread45
  call void @free(ptr noundef %32) #11
  %53 = load ptr, ptr %.148, align 8
  store ptr %53, ptr %2, align 8
  %54 = getelementptr inbounds nuw i8, ptr %53, i64 16
  %55 = load ptr, ptr %54, align 8
  store ptr %55, ptr %.148, align 8
  %56 = load ptr, ptr %2, align 8
  call void @free(ptr noundef %56) #11
  %57 = load ptr, ptr %10, align 8
  %.not42 = icmp eq ptr %57, %4
  br i1 %.not42, label %.loopexit, label %11

.loopexit:                                        ; preds = %52, %14, %11, %36, %.thread
  %.0 = phi i32 [ 1, %36 ], [ 1, %.thread ], [ 0, %52 ], [ 2, %14 ], [ 1, %11 ]
  ret i32 %.0
}